target datalayout = "e-m:e-p270:32:32-p271:32:32-p272:64:64-i64:64-i128:128-f80:128-n8:16:32:64-S128"
target triple = "x86_64-pc-linux-gnu"

@.str.31 = private unnamed_addr constant [19 x i8] c"N_VGetArrayPointer\00", align 1
@stderr = external global ptr, align 8
@.str.63 = private unnamed_addr constant [39 x i8] c"\0AERROR: %s() failed -- returned NULL\0A\0A\00", align 1
@.str.64 = private unnamed_addr constant [37 x i8] c"\0AERROR: %s() failed -- returned %d\0A\0A\00", align 1
@.str.65 = private unnamed_addr constant [51 x i8] c"\0AERROR: check_retval failed -- Invalid opt value\0A\0A\00", align 1

; Function Attrs: nounwind uwtable
define internal i32 @check_retval(ptr noundef %0, ptr noundef %1, i32 noundef %2) #0 {
  %4 = alloca i32, align 4
  %5 = alloca ptr, align 8
  %6 = alloca ptr, align 8
  %7 = alloca i32, align 4
  %8 = alloca ptr, align 8
  %9 = alloca i32, align 4
  store ptr %0, ptr %5, align 8, !tbaa !11
  store ptr %1, ptr %6, align 8, !tbaa !32
  store i32 %2, ptr %7, align 4, !tbaa !4
  call void @llvm.lifetime.start.p0(i64 8, ptr %8) #8
  %10 = load i32, ptr %7, align 4, !tbaa !4
  %11 = icmp eq i32 %10, 0
  br i1 %11, label %12, label %20

12:                                               ; preds = %3
  %13 = load ptr, ptr %5, align 8, !tbaa !11
  %14 = icmp eq ptr %13, null
  br i1 %14, label %15, label %19

15:                                               ; preds = %12
  %16 = load ptr, ptr @stderr, align 8, !tbaa !14
  %17 = load ptr, ptr %6, align 8, !tbaa !32
  %18 = call i32 (ptr, ptr, ...) @fprintf(ptr noundef %16, ptr noundef @.str.63, ptr noundef %17) #8
  store i32 1, ptr %4, align 4
  store i32 1, ptr %9, align 4
  br label %38

19:                                               ; preds = %12
  store i32 0, ptr %4, align 4
  store i32 1, ptr %9, align 4
  br label %38

20:                                               ; preds = %3
  %21 = load i32, ptr %7, align 4, !tbaa !4
  %22 = icmp eq i32 %21, 1
  br i1 %22, label %23, label %35

23:                                               ; preds = %20
  %24 = load ptr, ptr %5, align 8, !tbaa !11
  store ptr %24, ptr %8, align 8, !tbaa !34
  %25 = load ptr, ptr %8, align 8, !tbaa !34
  %26 = load i32, ptr %25, align 4, !tbaa !4
  %27 = icmp ne i32 %26, 0
  br i1 %27, label %28, label %34

28:                                               ; preds = %23
  %29 = load ptr, ptr @stderr, align 8, !tbaa !14
  %30 = load ptr, ptr %6, align 8, !tbaa !32
  %31 = load ptr, ptr %8, align 8, !tbaa !34
  %32 = load i32, ptr %31, align 4, !tbaa !4
  %33 = call i32 (ptr, ptr, ...) @fprintf(ptr noundef %29, ptr noundef @.str.64, ptr noundef %30, i32 noundef %32) #8
  store i32 1, ptr %4, align 4
  store i32 1, ptr %9, align 4
  br label %38

34:                                               ; preds = %23
  store i32 0, ptr %4, align 4
  store i32 1, ptr %9, align 4
  br label %38

35:                                               ; preds = %20
  %36 = load ptr, ptr @stderr, align 8, !tbaa !14
  %37 = call i32 (ptr, ptr, ...) @fprintf(ptr noundef %36, ptr noundef @.str.65) #8
  store i32 1, ptr %4, align 4
  store i32 1, ptr %9, align 4
  br label %38

38:                                               ; preds = %35, %34, %28, %19, %15
  call void @llvm.lifetime.end.p0(i64 8, ptr %8) #8
  %39 = load i32, ptr %4, align 4
  ret i32 %39
}

; Function Attrs: nounwind uwtable
define internal i32 @FPFunction(ptr noundef %0, ptr noundef %1, ptr noundef %2) #0 {
  %4 = alloca i32, align 4
  %5 = alloca ptr, align 8
  %6 = alloca ptr, align 8
  %7 = alloca ptr, align 8
  %8 = alloca ptr, align 8
  %9 = alloca ptr, align 8
  %10 = alloca double, align 8
  %11 = alloca double, align 8
  %12 = alloca double, align 8
  %13 = alloca i32, align 4
  store ptr %0, ptr %5, align 8, !tbaa !12
  store ptr %1, ptr %6, align 8, !tbaa !12
  store ptr %2, ptr %7, align 8, !tbaa !11
  call void @llvm.lifetime.start.p0(i64 8, ptr %8) #8
  store ptr null, ptr %8, align 8, !tbaa !28
  call void @llvm.lifetime.start.p0(i64 8, ptr %9) #8
  store ptr null, ptr %9, align 8, !tbaa !28
  call void @llvm.lifetime.start.p0(i64 8, ptr %10) #8
  call void @llvm.lifetime.start.p0(i64 8, ptr %11) #8
  call void @llvm.lifetime.start.p0(i64 8, ptr %12) #8
  %14 = load ptr, ptr %5, align 8, !tbaa !12
  %15 = call ptr @N_VGetArrayPointer(ptr noundef %14)
  store ptr %15, ptr %8, align 8, !tbaa !28
  %16 = load ptr, ptr %8, align 8, !tbaa !28
  %17 = call i32 @check_retval(ptr noundef %16, ptr noundef @.str.31, i32 noundef 0)
  %18 = icmp ne i32 %17, 0
  br i1 %18, label %19, label %20

19:                                               ; preds = %3
  store i32 -1, ptr %4, align 4
  store i32 1, ptr %13, align 4
  br label %64

20:                                               ; preds = %3
  %21 = load ptr, ptr %6, align 8, !tbaa !12
  %22 = call ptr @N_VGetArrayPointer(ptr noundef %21)
  store ptr %22, ptr %9, align 8, !tbaa !28
  %23 = load ptr, ptr %9, align 8, !tbaa !28
  %24 = call i32 @check_retval(ptr noundef %23, ptr noundef @.str.31, i32 noundef 0)
  %25 = icmp ne i32 %24, 0
  br i1 %25, label %26, label %27

26:                                               ; preds = %20
  store i32 -1, ptr %4, align 4
  store i32 1, ptr %13, align 4
  br label %64

27:                                               ; preds = %20
  %28 = load ptr, ptr %8, align 8, !tbaa !28
  %29 = getelementptr inbounds double, ptr %28, i64 0
  %30 = load double, ptr %29, align 8, !tbaa !30
  store double %30, ptr %10, align 8, !tbaa !30
  %31 = load ptr, ptr %8, align 8, !tbaa !28
  %32 = getelementptr inbounds double, ptr %31, i64 1
  %33 = load double, ptr %32, align 8, !tbaa !30
  store double %33, ptr %11, align 8, !tbaa !30
  %34 = load ptr, ptr %8, align 8, !tbaa !28
  %35 = getelementptr inbounds double, ptr %34, i64 2
  %36 = load double, ptr %35, align 8, !tbaa !30
  store double %36, ptr %12, align 8, !tbaa !30
  %37 = load double, ptr %11, align 8, !tbaa !30
  %38 = fsub double %37, 1.000000e+00
  %39 = load double, ptr %12, align 8, !tbaa !30
  %40 = fmul double %38, %39
  %41 = call double @cos(double noundef %40) #8, !tbaa !4
  %42 = call double @llvm.fmuladd.f64(double 0x3FD5555555555555, double %41, double 0x3FC5555555555555)
  %43 = load ptr, ptr %9, align 8, !tbaa !28
  %44 = getelementptr inbounds double, ptr %43, i64 0
  store double %42, ptr %44, align 8, !tbaa !30
  %45 = load double, ptr %10, align 8, !tbaa !30
  %46 = load double, ptr %10, align 8, !tbaa !30
  %47 = load double, ptr %12, align 8, !tbaa !30
  %48 = call double @sin(double noundef %47) #8, !tbaa !4
  %49 = call double @llvm.fmuladd.f64(double %45, double %46, double %48)
  %50 = fadd double %49, 1.060000e+00
  %51 = call double @sqrt(double noundef %50) #8, !tbaa !4
  %52 = call double @llvm.fmuladd.f64(double 0x3FBC71C71C71C71C, double %51, double 9.000000e-01)
  %53 = load ptr, ptr %9, align 8, !tbaa !28
  %54 = getelementptr inbounds double, ptr %53, i64 1
  store double %52, ptr %54, align 8, !tbaa !30
  %55 = load double, ptr %10, align 8, !tbaa !30
  %56 = fneg double %55
  %57 = load double, ptr %11, align 8, !tbaa !30
  %58 = fsub double %57, 1.000000e+00
  %59 = fmul double %56, %58
  %60 = call double @exp(double noundef %59) #8, !tbaa !4
  %61 = call double @llvm.fmuladd.f64(double -5.000000e-02, double %60, double 0xBFDE4F713D27B3AD)
  %62 = load ptr, ptr %9, align 8, !tbaa !28
  %63 = getelementptr inbounds double, ptr %62, i64 2
  store double %61, ptr %63, align 8, !tbaa !30
  store i32 0, ptr %4, align 4
  store i32 1, ptr %13, align 4
  br label %64

64:                                               ; preds = %27, %26, %19
  call void @llvm.lifetime.end.p0(i64 8, ptr %12) #8
  call void @llvm.lifetime.end.p0(i64 8, ptr %11) #8
  call void @llvm.lifetime.end.p0(i64 8, ptr %10) #8
  call void @llvm.lifetime.end.p0(i64 8, ptr %9) #8
  call void @llvm.lifetime.end.p0(i64 8, ptr %8) #8
  %65 = load i32, ptr %4, align 4
  ret i32 %65
}