; Function Attrs: nounwind uwtable
define internal range(i32 -1, 1) i32 @FPFunction(ptr noundef %0, ptr noundef %1, ptr readnone captures(none) %2) #0 {
  %4 = tail call ptr @N_VGetArrayPointer(ptr noundef %0) #9
  %5 = icmp eq ptr %4, null
  br i1 %5, label %check_retval.exit, label %8

check_retval.exit:                                ; preds = %3
  %6 = load ptr, ptr @stderr, align 8, !tbaa !9
  %7 = tail call i32 (ptr, ptr, ...) @fprintf(ptr noundef %6, ptr noundef nonnull @.str.63, ptr noundef nonnull @.str.31) #11
  br label %34

8:                                                ; preds = %3
  %9 = tail call ptr @N_VGetArrayPointer(ptr noundef %1) #9
  %10 = icmp eq ptr %9, null
  br i1 %10, label %check_retval.exit19, label %13

check_retval.exit19:                              ; preds = %8
  %11 = load ptr, ptr @stderr, align 8, !tbaa !9
  %12 = tail call i32 (ptr, ptr, ...) @fprintf(ptr noundef %11, ptr noundef nonnull @.str.63, ptr noundef nonnull @.str.31) #11
  br label %34

13:                                               ; preds = %8
  %14 = load double, ptr %4, align 8, !tbaa !14
  %15 = getelementptr inbounds nuw i8, ptr %4, i64 8
  %16 = load double, ptr %15, align 8, !tbaa !14
  %17 = getelementptr inbounds nuw i8, ptr %4, i64 16
  %18 = load double, ptr %17, align 8, !tbaa !14
  %19 = fadd double %16, -1.000000e+00
  %20 = fmul double %19, %18
  %21 = tail call double @cos(double noundef %20) #9, !tbaa !18
  %22 = tail call double @llvm.fmuladd.f64(double %21, double 0x3FD5555555555555, double 0x3FC5555555555555)
  store double %22, ptr %9, align 8, !tbaa !14
  %23 = tail call double @sin(double noundef %18) #9, !tbaa !18
  %24 = tail call double @llvm.fmuladd.f64(double %14, double %14, double %23)
  %25 = fadd double %24, 1.060000e+00
  %26 = tail call double @sqrt(double noundef %25) #9, !tbaa !18
  %27 = tail call double @llvm.fmuladd.f64(double %26, double 0x3FBC71C71C71C71C, double 9.000000e-01)
  %28 = getelementptr inbounds nuw i8, ptr %9, i64 8
  store double %27, ptr %28, align 8, !tbaa !14
  %29 = fneg double %14
  %30 = fmul double %19, %29
  %31 = tail call double @exp(double noundef %30) #9, !tbaa !18
  %32 = tail call double @llvm.fmuladd.f64(double %31, double -5.000000e-02, double 0xBFDE4F713D27B3AD)
  %33 = getelementptr inbounds nuw i8, ptr %9, i64 16
  store double %32, ptr %33, align 8, !tbaa !14
  br label %34

34:                                               ; preds = %check_retval.exit19, %check_retval.exit, %13
  %.0 = phi i32 [ 0, %13 ], [ -1, %check_retval.exit ], [ -1, %check_retval.exit19 ]
  ret i32 %.0
}